target datalayout = "e-m:e-p270:32:32-p271:32:32-p272:64:64-i64:64-i128:128-f80:128-n8:16:32:64-S128"
target triple = "x86_64-pc-linux-gnu"

%struct.SilenceRemoveContext = type { ptr, i32, i32, i64, i64, double, i64, i64, i32, i32, i64, i64, double, i64, i64, i64, i32, i32, i32, i32, i32, i32, i32, ptr, ptr, ptr, ptr, ptr, ptr, i64, i32, i32, i32, i32, i32, ptr, ptr, ptr, i32, i32, ptr, i32, i32, i32, i32, i64, i32, ptr, ptr }
%struct.AVFrame = type { [8 x ptr], [8 x i32], ptr, i32, i32, i32, i32, i32, %struct.AVRational, i64, i64, %struct.AVRational, i32, ptr, i32, i32, [8 x ptr], ptr, i32, ptr, i32, i32, i32, i32, i32, i32, i32, i64, ptr, i32, ptr, ptr, i64, i64, i64, i64, ptr, %struct.AVChannelLayout, i64 }
%struct.AVRational = type { i32, i32 }
%struct.AVChannelLayout = type { i32, i32, %union.anon.1, ptr }
%union.anon.1 = type { i64 }

; Function Attrs: nounwind uwtable
define internal void @clear_windows(ptr noundef %0) #2 {
  %2 = alloca ptr, align 8
  store ptr %0, ptr %2, align 8, !tbaa !22
  %3 = load ptr, ptr %2, align 8, !tbaa !22
  %4 = getelementptr inbounds nuw %struct.SilenceRemoveContext, ptr %3, i32 0, i32 23
  %5 = load ptr, ptr %4, align 8, !tbaa !71
  %6 = getelementptr inbounds nuw %struct.AVFrame, ptr %5, i32 0, i32 2
  %7 = load ptr, ptr %6, align 8, !tbaa !84
  %8 = load ptr, ptr %2, align 8, !tbaa !22
  %9 = getelementptr inbounds nuw %struct.SilenceRemoveContext, ptr %8, i32 0, i32 23
  %10 = load ptr, ptr %9, align 8, !tbaa !71
  %11 = getelementptr inbounds nuw %struct.AVFrame, ptr %10, i32 0, i32 5
  %12 = load i32, ptr %11, align 8, !tbaa !49
  %13 = load ptr, ptr %2, align 8, !tbaa !22
  %14 = getelementptr inbounds nuw %struct.SilenceRemoveContext, ptr %13, i32 0, i32 23
  %15 = load ptr, ptr %14, align 8, !tbaa !71
  %16 = getelementptr inbounds nuw %struct.AVFrame, ptr %15, i32 0, i32 37
  %17 = getelementptr inbounds nuw %struct.AVChannelLayout, ptr %16, i32 0, i32 1
  %18 = load i32, ptr %17, align 4, !tbaa !85
  %19 = load ptr, ptr %2, align 8, !tbaa !22
  %20 = getelementptr inbounds nuw %struct.SilenceRemoveContext, ptr %19, i32 0, i32 23
  %21 = load ptr, ptr %20, align 8, !tbaa !71
  %22 = getelementptr inbounds nuw %struct.AVFrame, ptr %21, i32 0, i32 6
  %23 = load i32, ptr %22, align 4, !tbaa !86
  %24 = call i32 @av_samples_set_silence(ptr noundef %7, i32 noundef 0, i32 noundef %12, i32 noundef %18, i32 noundef %23)
  %25 = load ptr, ptr %2, align 8, !tbaa !22
  %26 = getelementptr inbounds nuw %struct.SilenceRemoveContext, ptr %25, i32 0, i32 24
  %27 = load ptr, ptr %26, align 8, !tbaa !72
  %28 = getelementptr inbounds nuw %struct.AVFrame, ptr %27, i32 0, i32 2
  %29 = load ptr, ptr %28, align 8, !tbaa !84
  %30 = load ptr, ptr %2, align 8, !tbaa !22
  %31 = getelementptr inbounds nuw %struct.SilenceRemoveContext, ptr %30, i32 0, i32 24
  %32 = load ptr, ptr %31, align 8, !tbaa !72
  %33 = getelementptr inbounds nuw %struct.AVFrame, ptr %32, i32 0, i32 5
  %34 = load i32, ptr %33, align 8, !tbaa !49
  %35 = load ptr, ptr %2, align 8, !tbaa !22
  %36 = getelementptr inbounds nuw %struct.SilenceRemoveContext, ptr %35, i32 0, i32 24
  %37 = load ptr, ptr %36, align 8, !tbaa !72
  %38 = getelementptr inbounds nuw %struct.AVFrame, ptr %37, i32 0, i32 37
  %39 = getelementptr inbounds nuw %struct.AVChannelLayout, ptr %38, i32 0, i32 1
  %40 = load i32, ptr %39, align 4, !tbaa !85
  %41 = load ptr, ptr %2, align 8, !tbaa !22
  %42 = getelementptr inbounds nuw %struct.SilenceRemoveContext, ptr %41, i32 0, i32 24
  %43 = load ptr, ptr %42, align 8, !tbaa !72
  %44 = getelementptr inbounds nuw %struct.AVFrame, ptr %43, i32 0, i32 6
  %45 = load i32, ptr %44, align 4, !tbaa !86
  %46 = call i32 @av_samples_set_silence(ptr noundef %29, i32 noundef 0, i32 noundef %34, i32 noundef %40, i32 noundef %45)
  %47 = load ptr, ptr %2, align 8, !tbaa !22
  %48 = getelementptr inbounds nuw %struct.SilenceRemoveContext, ptr %47, i32 0, i32 31
  store i32 0, ptr %48, align 4, !tbaa !87
  %49 = load ptr, ptr %2, align 8, !tbaa !22
  %50 = getelementptr inbounds nuw %struct.SilenceRemoveContext, ptr %49, i32 0, i32 32
  store i32 0, ptr %50, align 8, !tbaa !88
  %51 = load ptr, ptr %2, align 8, !tbaa !22
  %52 = getelementptr inbounds nuw %struct.SilenceRemoveContext, ptr %51, i32 0, i32 33
  store i32 0, ptr %52, align 4, !tbaa !89
  %53 = load ptr, ptr %2, align 8, !tbaa !22
  %54 = getelementptr inbounds nuw %struct.SilenceRemoveContext, ptr %53, i32 0, i32 34
  store i32 0, ptr %54, align 8, !tbaa !90
  %55 = load ptr, ptr %2, align 8, !tbaa !22
  %56 = getelementptr inbounds nuw %struct.SilenceRemoveContext, ptr %55, i32 0, i32 38
  store i32 0, ptr %56, align 8, !tbaa !91
  %57 = load ptr, ptr %2, align 8, !tbaa !22
  %58 = getelementptr inbounds nuw %struct.SilenceRemoveContext, ptr %57, i32 0, i32 39
  store i32 0, ptr %58, align 4, !tbaa !92
  %59 = load ptr, ptr %2, align 8, !tbaa !22
  %60 = getelementptr inbounds nuw %struct.SilenceRemoveContext, ptr %59, i32 0, i32 41
  store i32 0, ptr %60, align 8, !tbaa !93
  %61 = load ptr, ptr %2, align 8, !tbaa !22
  %62 = getelementptr inbounds nuw %struct.SilenceRemoveContext, ptr %61, i32 0, i32 42
  store i32 0, ptr %62, align 4, !tbaa !94
  ret void
}