; Function Attrs: nounwind uwtable
define internal fastcc void @clear_windows(ptr noundef captures(none) initializes((204, 220), (248, 256), (264, 272)) %0) unnamed_addr #3 {
  %2 = getelementptr inbounds nuw i8, ptr %0, i64 144
  %3 = load ptr, ptr %2, align 8, !tbaa !80
  %4 = getelementptr inbounds nuw i8, ptr %3, i64 96
  %5 = load ptr, ptr %4, align 8, !tbaa !92
  %6 = getelementptr inbounds nuw i8, ptr %3, i64 112
  %7 = load i32, ptr %6, align 8, !tbaa !44
  %8 = getelementptr inbounds nuw i8, ptr %3, i64 388
  %9 = load i32, ptr %8, align 4, !tbaa !93
  %10 = getelementptr inbounds nuw i8, ptr %3, i64 116
  %11 = load i32, ptr %10, align 4, !tbaa !94
  %12 = tail call i32 @av_samples_set_silence(ptr noundef %5, i32 noundef 0, i32 noundef %7, i32 noundef %9, i32 noundef %11) #12
  %13 = getelementptr inbounds nuw i8, ptr %0, i64 152
  %14 = load ptr, ptr %13, align 8, !tbaa !81
  %15 = getelementptr inbounds nuw i8, ptr %14, i64 96
  %16 = load ptr, ptr %15, align 8, !tbaa !92
  %17 = getelementptr inbounds nuw i8, ptr %14, i64 112
  %18 = load i32, ptr %17, align 8, !tbaa !44
  %19 = getelementptr inbounds nuw i8, ptr %14, i64 388
  %20 = load i32, ptr %19, align 4, !tbaa !93
  %21 = getelementptr inbounds nuw i8, ptr %14, i64 116
  %22 = load i32, ptr %21, align 4, !tbaa !94
  %23 = tail call i32 @av_samples_set_silence(ptr noundef %16, i32 noundef 0, i32 noundef %18, i32 noundef %20, i32 noundef %22) #12
  %24 = getelementptr inbounds nuw i8, ptr %0, i64 204
  %25 = getelementptr inbounds nuw i8, ptr %0, i64 248
  store i32 0, ptr %25, align 8, !tbaa !95
  %26 = getelementptr inbounds nuw i8, ptr %0, i64 252
  store i32 0, ptr %26, align 4, !tbaa !96
  %27 = getelementptr inbounds nuw i8, ptr %0, i64 264
  store i32 0, ptr %27, align 8, !tbaa !97
  %28 = getelementptr inbounds nuw i8, ptr %0, i64 268
  store i32 0, ptr %28, align 4, !tbaa !98
  tail call void @llvm.memset.p0.i64(ptr noundef nonnull align 4 dereferenceable(16) %24, i8 0, i64 16, i1 false)
  ret void
}